#include <math.h>
#include <stdio.h>
#include <stdlib.h>
#include <string.h>



int main(){
 int a[100][100],n,b,c,d=0,x1,x2,y1,y2,m;
 scanf("%d",&n);
 for(b=0;b<n;b++){
	 for(c=0;c<n;c++){
		 scanf("%d",&a[b][c]);
	     if(a[b][c]==0&&d==0){
			 x1=b;
			 y1=c;
			 d=1;
		 }
         else if(a[b][c]==0&&d==1){
			 x2=b;
			 y2=c;
		 }
	 }
 }
m=(x2-x1-1)*(y2-y1-1);
printf("%d",(x2-x1-1)*(y2-y1-1));
return 0;
}